target datalayout = "e-m:e-p270:32:32-p271:32:32-p272:64:64-i64:64-i128:128-f80:128-n8:16:32:64-S128"
target triple = "x86_64-pc-linux-gnu"

%struct._address = type { i32, i32, ptr, ptr }
%struct._endpoint_item_t = type { ptr, %struct._address, i32, i32, i64, i64, i64, i64, i64, i64, i64, i64, i8, i8 }

@.str.26 = private unnamed_addr constant [14 x i8] c"zbee_nwk.addr\00", align 1
@zbee_nwk_address_type = internal global i32 -1, align 4
@.str.380 = private unnamed_addr constant [8 x i8] c"INVALID\00", align 1

; Function Attrs: nounwind null_pointer_is_valid sspstrong uwtable
define internal ptr @zbee_nwk_endpoint_get_filter_type(ptr noundef %0, i32 noundef %1) #0 {
  %3 = alloca ptr, align 8
  %4 = alloca ptr, align 8
  %5 = alloca i32, align 4
  store ptr %0, ptr %4, align 8
  store i32 %1, ptr %5, align 4
  %6 = load i32, ptr %5, align 4
  %7 = icmp eq i32 %6, 2
  br i1 %7, label %8, label %16

8:                                                ; preds = %2
  %9 = load ptr, ptr %4, align 8
  %10 = getelementptr inbounds nuw %struct._endpoint_item_t, ptr %9, i32 0, i32 1
  %11 = getelementptr inbounds nuw %struct._address, ptr %10, i32 0, i32 0
  %12 = load i32, ptr %11, align 8
  %13 = load i32, ptr @zbee_nwk_address_type, align 4
  %14 = icmp eq i32 %12, %13
  br i1 %14, label %15, label %16

15:                                               ; preds = %8
  store ptr @.str.26, ptr %3, align 8
  br label %17

16:                                               ; preds = %8, %2
  store ptr @.str.380, ptr %3, align 8
  br label %17

17:                                               ; preds = %16, %15
  %18 = load ptr, ptr %3, align 8
  ret ptr %18
}