; Function Attrs: mustprogress nofree norecurse nosync nounwind null_pointer_is_valid sspstrong willreturn memory(read, inaccessiblemem: none) uwtable
define internal noundef nonnull ptr @zbee_nwk_endpoint_get_filter_type(ptr noundef readonly captures(none) %0, i32 noundef %1) #7 {
  %3 = icmp eq i32 %1, 2
  br i1 %3, label %4, label %9

4:                                                ; preds = %2
  %5 = getelementptr inbounds nuw i8, ptr %0, i64 8
  %6 = load i32, ptr %5, align 8
  %7 = load i32, ptr @zbee_nwk_address_type, align 4
  %8 = icmp eq i32 %6, %7
  br i1 %8, label %10, label %9

9:                                                ; preds = %4, %2
  br label %10

10:                                               ; preds = %4, %9
  %.0 = phi ptr [ @.str.380, %9 ], [ @.str.26, %4 ]
  ret ptr %.0
}